target datalayout = "e-m:e-p270:32:32-p271:32:32-p272:64:64-i64:64-i128:128-f80:128-n8:16:32:64-S128"
target triple = "x86_64-pc-linux-gnu"

%struct._GArray = type { ptr, i32 }
%struct.open_info = type { ptr, i32, ptr, ptr, ptr, ptr }

@open_info_arr = internal global ptr null, align 8
@open_routines = global ptr null, align 8
@.str.1 = private unnamed_addr constant [8 x i8] c"Wiretap\00", align 1
@.str.2 = private unnamed_addr constant [22 x i8] c"wiretap/file_access.c\00", align 1
@__func__.wtap_has_open_info = private unnamed_addr constant [19 x i8] c"wtap_has_open_info\00", align 1
@.str.7 = private unnamed_addr constant [37 x i8] c"No name given to wtap_has_open_info!\00", align 1

; Function Attrs: null_pointer_is_valid sspstrong uwtable
define zeroext i1 @wtap_has_open_info(ptr noundef %0) #0 {
  %2 = alloca i1, align 1
  %3 = alloca ptr, align 8
  %4 = alloca i32, align 4
  %5 = alloca i32, align 4
  store ptr %0, ptr %3, align 8
  call void @llvm.lifetime.start.p0(i64 4, ptr %4) #12
  %6 = load ptr, ptr %3, align 8
  %7 = icmp ne ptr %6, null
  br i1 %7, label %9, label %8

8:                                                ; preds = %1
  call void (ptr, i32, ptr, i64, ptr, ptr, ...) @ws_log_fatal_full(ptr noundef @.str.1, i32 noundef 7, ptr noundef @.str.2, i64 noundef 578, ptr noundef @__func__.wtap_has_open_info, ptr noundef @.str.7) #13
  unreachable

9:                                                ; preds = %1
  store i32 0, ptr %4, align 4
  br label %10

10:                                               ; preds = %36, %9
  %11 = load i32, ptr %4, align 4
  %12 = load ptr, ptr @open_info_arr, align 8
  %13 = getelementptr inbounds nuw %struct._GArray, ptr %12, i32 0, i32 1
  %14 = load i32, ptr %13, align 8
  %15 = icmp ult i32 %11, %14
  br i1 %15, label %16, label %39

16:                                               ; preds = %10
  %17 = load ptr, ptr @open_routines, align 8
  %18 = load i32, ptr %4, align 4
  %19 = zext i32 %18 to i64
  %20 = getelementptr %struct.open_info, ptr %17, i64 %19
  %21 = getelementptr inbounds nuw %struct.open_info, ptr %20, i32 0, i32 0
  %22 = load ptr, ptr %21, align 8
  %23 = icmp ne ptr %22, null
  br i1 %23, label %24, label %35

24:                                               ; preds = %16
  %25 = load ptr, ptr @open_routines, align 8
  %26 = load i32, ptr %4, align 4
  %27 = zext i32 %26 to i64
  %28 = getelementptr %struct.open_info, ptr %25, i64 %27
  %29 = getelementptr inbounds nuw %struct.open_info, ptr %28, i32 0, i32 0
  %30 = load ptr, ptr %29, align 8
  %31 = load ptr, ptr %3, align 8
  %32 = call i32 @strcmp(ptr noundef %30, ptr noundef %31) #14
  %33 = icmp eq i32 %32, 0
  br i1 %33, label %34, label %35

34:                                               ; preds = %24
  store i1 true, ptr %2, align 1
  store i32 1, ptr %5, align 4
  br label %40

35:                                               ; preds = %24, %16
  br label %36

36:                                               ; preds = %35
  %37 = load i32, ptr %4, align 4
  %38 = add i32 %37, 1
  store i32 %38, ptr %4, align 4
  br label %10, !llvm.loop !12

39:                                               ; preds = %10
  store i1 false, ptr %2, align 1
  store i32 1, ptr %5, align 4
  br label %40

40:                                               ; preds = %39, %34
  call void @llvm.lifetime.end.p0(i64 4, ptr %4) #12
  %41 = load i1, ptr %2, align 1
  ret i1 %41
}