; Function Attrs: null_pointer_is_valid sspstrong uwtable
define noundef zeroext i1 @wtap_has_open_info(ptr noundef readonly captures(address_is_null) %0) local_unnamed_addr #0 {
  %.not = icmp eq ptr %0, null
  br i1 %.not, label %6, label %.preheader

.preheader:                                       ; preds = %1
  %2 = load ptr, ptr @open_info_arr, align 8
  %3 = getelementptr inbounds nuw i8, ptr %2, i64 8
  %4 = load i32, ptr %3, align 8
  %.not13 = icmp eq i32 %4, 0
  br i1 %.not13, label %._crit_edge, label %.lr.ph

.lr.ph:                                           ; preds = %.preheader
  %5 = load ptr, ptr @open_routines, align 8
  %wide.trip.count = zext i32 %4 to i64
  br label %7

6:                                                ; preds = %1
  tail call void (ptr, i32, ptr, i64, ptr, ptr, ...) @ws_log_fatal_full(ptr noundef nonnull @.str.1, i32 noundef 7, ptr noundef nonnull @.str.2, i64 noundef 578, ptr noundef nonnull @__func__.wtap_has_open_info, ptr noundef nonnull @.str.7) #22
  unreachable

7:                                                ; preds = %.lr.ph, %13
  %indvars.iv = phi i64 [ 0, %.lr.ph ], [ %indvars.iv.next, %13 ]
  %8 = getelementptr %struct.open_info, ptr %5, i64 %indvars.iv
  %9 = load ptr, ptr %8, align 8
  %.not9 = icmp eq ptr %9, null
  br i1 %.not9, label %13, label %10

10:                                               ; preds = %7
  %11 = tail call i32 @strcmp(ptr noundef nonnull dereferenceable(1) %9, ptr noundef nonnull dereferenceable(1) %0) #23
  %12 = icmp eq i32 %11, 0
  br i1 %12, label %._crit_edge, label %13

13:                                               ; preds = %7, %10
  %indvars.iv.next = add nuw nsw i64 %indvars.iv, 1
  %exitcond.not = icmp eq i64 %indvars.iv.next, %wide.trip.count
  br i1 %exitcond.not, label %._crit_edge, label %7, !llvm.loop !11

._crit_edge:                                      ; preds = %10, %13, %.preheader
  %.lcssa = phi i1 [ false, %.preheader ], [ false, %13 ], [ true, %10 ]
  ret i1 %.lcssa
}